; Function Attrs: mustprogress uwtable
define void @_ZN4cvc56parser25GetInterpolantNextCommandC2Ev(ptr noundef nonnull align 8 dereferenceable(72) initializes((0, 16)) %0) unnamed_addr #3 align 2 personality ptr @__gxx_personality_v0 {
  %2 = getelementptr inbounds nuw i8, ptr %0, i64 8
  store ptr null, ptr %2, align 8, !tbaa !48
  store ptr getelementptr inbounds nuw inrange(-16, 56) (i8, ptr @_ZTVN4cvc56parser25GetInterpolantNextCommandE, i64 16), ptr %0, align 8, !tbaa !6
  %3 = getelementptr inbounds nuw i8, ptr %0, i64 16
  %4 = getelementptr inbounds nuw i8, ptr %0, i64 32
  store ptr %4, ptr %3, align 8, !tbaa !41
  %5 = getelementptr inbounds nuw i8, ptr %0, i64 24
  store i64 0, ptr %5, align 8, !tbaa !24
  store i8 0, ptr %4, align 8, !tbaa !3
  %6 = getelementptr inbounds nuw i8, ptr %0, i64 48
  invoke void @_ZN4cvc54TermC1Ev(ptr noundef nonnull align 8 dereferenceable(24) %6)
          to label %7 unwind label %8

7:                                                ; preds = %1
  ret void

8:                                                ; preds = %1
  %9 = landingpad { ptr, i32 }
          cleanup
  %10 = load ptr, ptr %3, align 8, !tbaa !20
  %11 = icmp eq ptr %10, %4
  br i1 %11, label %_ZNKSt7__cxx1112basic_stringIcSt11char_traitsIcESaIcEE11_M_is_localEv.exit.thread.i.i, label %_ZNKSt7__cxx1112basic_stringIcSt11char_traitsIcESaIcEE11_M_is_localEv.exit.i.i

_ZNKSt7__cxx1112basic_stringIcSt11char_traitsIcESaIcEE11_M_is_localEv.exit.thread.i.i: ; preds = %8
  %12 = load i64, ptr %5, align 8, !tbaa !24
  %13 = icmp ult i64 %12, 16
  tail call void @llvm.assume(i1 %13)
  br label %_ZNSt7__cxx1112basic_stringIcSt11char_traitsIcESaIcEED2Ev.exit

_ZNKSt7__cxx1112basic_stringIcSt11char_traitsIcESaIcEE11_M_is_localEv.exit.i.i: ; preds = %8
  %14 = load i64, ptr %4, align 8, !tbaa !3
  %15 = add i64 %14, 1
  tail call void @_ZdlPvm(ptr noundef %10, i64 noundef %15) #34
  br label %_ZNSt7__cxx1112basic_stringIcSt11char_traitsIcESaIcEED2Ev.exit

_ZNSt7__cxx1112basic_stringIcSt11char_traitsIcESaIcEED2Ev.exit: ; preds = %_ZNKSt7__cxx1112basic_stringIcSt11char_traitsIcESaIcEE11_M_is_localEv.exit.thread.i.i, %_ZNKSt7__cxx1112basic_stringIcSt11char_traitsIcESaIcEE11_M_is_localEv.exit.i.i
  store ptr getelementptr inbounds nuw inrange(-16, 56) (i8, ptr @_ZTVN4cvc56parser3CmdE, i64 16), ptr %0, align 8, !tbaa !6
  %16 = load ptr, ptr %2, align 8, !tbaa !48
  %.not.i = icmp eq ptr %16, null
  %17 = load ptr, ptr @_ZN4cvc56parser14CommandSuccess10s_instanceE, align 8
  %.not2.i = icmp eq ptr %16, %17
  %or.cond.i = select i1 %.not.i, i1 true, i1 %.not2.i
  br i1 %or.cond.i, label %_ZN4cvc56parser3CmdD2Ev.exit, label %18

18:                                               ; preds = %_ZNSt7__cxx1112basic_stringIcSt11char_traitsIcESaIcEED2Ev.exit
  %19 = load ptr, ptr %16, align 8, !tbaa !6
  %20 = getelementptr inbounds nuw i8, ptr %19, i64 8
  %21 = load ptr, ptr %20, align 8
  tail call void %21(ptr noundef nonnull align 8 dereferenceable(8) %16) #33
  br label %_ZN4cvc56parser3CmdD2Ev.exit

_ZN4cvc56parser3CmdD2Ev.exit:                     ; preds = %_ZNSt7__cxx1112basic_stringIcSt11char_traitsIcESaIcEED2Ev.exit, %18
  resume { ptr, i32 } %9
}